ccollections
defaultdict
p0
(c__builtin__
list
p1
tp2
Rp3
cnumpy.core.multiarray
scalar
p4
(cnumpy
dtype
p5
(S'i4'
p6
I0
I1
tp7
Rp8
(I3
S'<'
p9
NNNI-1
I-1
I0
tp10
bS'\x00\x00\x00\x00'
p11
tp12
Rp13
(lp14
(g4
(g5
(S'f4'
p15
I0
I1
tp16
Rp17
(I3
S'<'
p18
NNNI-1
I-1
I0
tp19
bS'\x91o\xc1\xc2'
p20
tp21
Rp22
g4
(g17
S'\x03\xf8\x14B'
p23
tp24
Rp25
tp26
a(g4
(g17
S'\x1d\x98\xc1\xc2'
p27
tp28
Rp29
g4
(g17
S'\xce\x19\x15B'
p30
tp31
Rp32
tp33
a(g4
(g17
S')k\xc1\xc2'
p34
tp35
Rp36
g4
(g17
S'0L\x15B'
p37
tp38
Rp39
tp40
a(g4
(g17
S'\xef8\xc1\xc2'
p41
tp42
Rp43
g4
(g17
S'\xd2o\x15B'
p44
tp45
Rp46
tp47
a(g4
(g17
S'6\x1c\xc1\xc2'
p48
tp49
Rp50
g4
(g17
S'\x04\x96\x15B'
p51
tp52
Rp53
tp54
a(g4
(g17
S'\xa3\x01\xc1\xc2'
p55
tp56
Rp57
g4
(g17
S'\x04\x96\x15B'
p58
tp59
Rp60
tp61
a(g4
(g17
S'\xb4\xc8\xc0\xc2'
p62
tp63
Rp64
g4
(g17
S'\x87\xa7\x15B'
p65
tp66
Rp67
tp68
a(g4
(g17
S'B\xc0\xc0\xc2'
p69
tp70
Rp71
g4
(g17
S'^\xcb\x15B'
p72
tp73
Rp74
tp75
a(g4
(g17
S'4\xb1\xc0\xc2'
p76
tp77
Rp78
g4
(g17
S'W\xec\x15B'
p79
tp80
Rp81
tp82
asg4
(g8
S'\x07\x00\x00\x00'
p83
tp84
Rp85
(lp86
(g4
(g17
S'\xc1\xaa\xc1\xc2'
p87
tp88
Rp89
g4
(g17
S'\xb6\xb3\x12B'
p90
tp91
Rp92
tp93
a(g4
(g17
S'\xf9\x80\xc1\xc2'
p94
tp95
Rp96
g4
(g17
S'\xb4\xd9\x12B'
p97
tp98
Rp99
tp100
a(g4
(g17
S'\xa5]\xc1\xc2'
p101
tp102
Rp103
g4
(g17
S'\x17\xd9\x12B'
p104
tp105
Rp106
tp107
a(g4
(g17
S'\x954\xc1\xc2'
p108
tp109
Rp110
g4
(g17
S'\xb5\xf7\x12B'
p111
tp112
Rp113
tp114
a(g4
(g17
S'\x1a \xc1\xc2'
p115
tp116
Rp117
g4
(g17
S']\xfe\x12B'
p118
tp119
Rp120
tp121
a(g4
(g17
S'\xc3\xf3\xc0\xc2'
p122
tp123
Rp124
g4
(g17
S'\xf8\x13\x13B'
p125
tp126
Rp127
tp128
a(g4
(g17
S'G\xe3\xc0\xc2'
p129
tp130
Rp131
g4
(g17
S'\x1f4\x13B'
p132
tp133
Rp134
tp135
a(g4
(g17
S'\xd1\xc2\xc0\xc2'
p136
tp137
Rp138
g4
(g17
S'\x81D\x13B'
p139
tp140
Rp141
tp142
a(g4
(g17
S'\xd3\xcd\xc0\xc2'
p143
tp144
Rp145
g4
(g17
S'\xa0Z\x13B'
p146
tp147
Rp148
tp149
a(g4
(g17
S'\xfb\xba\xc0\xc2'
p150
tp151
Rp152
g4
(g17
S'\x19b\x13B'
p153
tp154
Rp155
tp156
a(g4
(g17
S'\xa0\xba\xc0\xc2'
p157
tp158
Rp159
g4
(g17
S'"l\x13B'
p160
tp161
Rp162
tp163
a(g4
(g17
S't\xa4\xc0\xc2'
p164
tp165
Rp166
g4
(g17
S'\x8dh\x13B'
p167
tp168
Rp169
tp170
a(g4
(g17
S'\xd2o\xc0\xc2'
p171
tp172
Rp173
g4
(g17
S'7\x89\x13B'
p174
tp175
Rp176
tp177
a(g4
(g17
S'\xb8O\xc0\xc2'
p178
tp179
Rp180
g4
(g17
S'\x89\x92\x13B'
p181
tp182
Rp183
tp184
a(g4
(g17
S'".\xc0\xc2'
p185
tp186
Rp187
g4
(g17
S'\x80\xb7\x13B'
p188
tp189
Rp190
tp191
a(g4
(g17
S'X\xb9\xbf\xc2'
p192
tp193
Rp194
g4
(g17
S'\xc1\n\x14B'
p195
tp196
Rp197
tp198
asg4
(g8
S'\x0b\x00\x00\x00'
p199
tp200
Rp201
(lp202
(g4
(g17
S'H0\xc3\xc2'
p203
tp204
Rp205
g4
(g17
S']\xbe\rB'
p206
tp207
Rp208
tp209
a(g4
(g17
S'8\x07\xc3\xc2'
p210
tp211
Rp212
g4
(g17
S'\xe5\xb2\rB'
p213
tp214
Rp215
tp216
a(g4
(g17
S'I\xdd\xc2\xc2'
p217
tp218
Rp219
g4
(g17
S'\xa9\xd3\rB'
p220
tp221
Rp222
tp223
a(g4
(g17
S'6\xcb\xc2\xc2'
p224
tp225
Rp226
g4
(g17
S'\x02\xda\rB'
p227
tp228
Rp229
tp230
a(g4
(g17
S';\xb0\xc2\xc2'
p231
tp232
Rp233
g4
(g17
S'+\xc7\rB'
p234
tp235
Rp236
tp237
a(g4
(g17
S'\xbc\xb6\xc2\xc2'
p238
tp239
Rp240
g4
(g17
S'j\xcd\rB'
p241
tp242
Rp243
tp244
a(g4
(g17
S'2\x97\xc2\xc2'
p245
tp246
Rp247
g4
(g17
S'\xe6\xee\rB'
p248
tp249
Rp250
tp251
a(g4
(g17
S'\x17h\xc2\xc2'
p252
tp253
Rp254
g4
(g17
S'r\n\x0eB'
p255
tp256
Rp257
tp258
a(g4
(g17
S'\xd5X\xc2\xc2'
p259
tp260
Rp261
g4
(g17
S'\xde\xf1\rB'
p262
tp263
Rp264
tp265
a(g4
(g17
S'\x9b\x15\xc2\xc2'
p266
tp267
Rp268
g4
(g17
S'4\x11\x0eB'
p269
tp270
Rp271
tp272
a(g4
(g17
S'\xc0\x0c\xc2\xc2'
p273
tp274
Rp275
g4
(g17
S'\xa3\x01\x0eB'
p276
tp277
Rp278
tp279
a(g4
(g17
S'\xdf\xe0\xc1\xc2'
p280
tp281
Rp282
g4
(g17
S'\x8e5\x0eB'
p283
tp284
Rp285
tp286
a(g4
(g17
S'\x1e\xd6\xc1\xc2'
p287
tp288
Rp289
g4
(g17
S'\x10\xfa\rB'
p290
tp291
Rp292
tp293
a(g4
(g17
S'\xfb\xba\xc1\xc2'
p294
tp295
Rp296
g4
(g17
S' \x01\x0eB'
p297
tp298
Rp299
tp300
a(g4
(g17
S'\xf8\x93\xc1\xc2'
p301
tp302
Rp303
g4
(g17
S'k\xeb\rB'
p304
tp305
Rp306
tp307
a(g4
(g17
S'\x1a1\xc1\xc2'
p308
tp309
Rp310
g4
(g17
S'\x7f\xea\rB'
p311
tp312
Rp313
tp314
asg4
(g8
S'\x0c\x00\x00\x00'
p315
tp316
Rp317
(lp318
(g4
(g17
S'\xd4\xcb\xc2\xc2'
p319
tp320
Rp321
g4
(g17
S'\x9d@\x0fB'
p322
tp323
Rp324
tp325
a(g4
(g17
S'\xe9\xa6\xc2\xc2'
p326
tp327
Rp328
g4
(g17
S'd\x8c\x0fB'
p329
tp330
Rp331
tp332
a(g4
(g17
S'Hp\xc2\xc2'
p333
tp334
Rp335
g4
(g17
S'\x96\xb2\x0fB'
p336
tp337
Rp338
tp339
a(g4
(g17
S'GR\xc2\xc2'
p340
tp341
Rp342
g4
(g17
S'\xca\x03\x10B'
p343
tp344
Rp345
tp346
a(g4
(g17
S'\xa3!\xc2\xc2'
p347
tp348
Rp349
g4
(g17
S'dL\x10B'
p350
tp351
Rp352
tp353
a(g4
(g17
S'\x82\xf3\xc1\xc2'
p354
tp355
Rp356
g4
(g17
S'\xa8u\x10B'
p357
tp358
Rp359
tp360
a(g4
(g17
S'\xdb\xca\xc1\xc2'
p361
tp362
Rp363
g4
(g17
S'6\xbc\x10B'
p364
tp365
Rp366
tp367
a(g4
(g17
S'\x9f\xad\xc1\xc2'
p368
tp369
Rp370
g4
(g17
S'\x0e\xfe\x10B'
p371
tp372
Rp373
tp374
a(g4
(g17
S'L\x86\xc1\xc2'
p375
tp376
Rp377
g4
(g17
S'\xb9M\x11B'
p378
tp379
Rp380
tp381
a(g4
(g17
S'\xe1k\xc1\xc2'
p382
tp383
Rp384
g4
(g17
S'!\xb0\x11B'
p385
tp386
Rp387
tp388
a(g4
(g17
S')<\xc1\xc2'
p389
tp390
Rp391
g4
(g17
S'\t\xb9\x11B'
p392
tp393
Rp394
tp395
a(g4
(g17
S'\xb7\x11\xc1\xc2'
p396
tp397
Rp398
g4
(g17
S'\xf2\xf0\x11B'
p399
tp400
Rp401
tp402
a(g4
(g17
S'\x95\xf4\xc0\xc2'
p403
tp404
Rp405
g4
(g17
S'\x0e>\x12B'
p406
tp407
Rp408
tp409
a(g4
(g17
S'\xfb\xcb\xc0\xc2'
p410
tp411
Rp412
g4
(g17
S'\xc8\x87\x12B'
p413
tp414
Rp415
tp416
a(g4
(g17
S'w~\xc0\xc2'
p417
tp418
Rp419
g4
(g17
S'\xce\xc8\x12B'
p420
tp421
Rp422
tp423
a(g4
(g17
S'\xb5\x17\xc0\xc2'
p424
tp425
Rp426
g4
(g17
S'\xe7]\x13B'
p427
tp428
Rp429
tp430
asg4
(g8
S'\x10\x00\x00\x00'
p431
tp432
Rp433
(lp434
(g4
(g17
S'\xce\xaa\xc2\xc2'
p435
tp436
Rp437
g4
(g17
S'\x18U\x10B'
p438
tp439
Rp440
tp441
a(g4
(g17
S'H\x7f\xc2\xc2'
p442
tp443
Rp444
g4
(g17
S'\xe6\x7f\x10B'
p445
tp446
Rp447
tp448
a(g4
(g17
S'\x8fD\xc2\xc2'
p449
tp450
Rp451
g4
(g17
S'\xdd\xb5\x10B'
p452
tp453
Rp454
tp455
a(g4
(g17
S'\xb1\x10\xc2\xc2'
p456
tp457
Rp458
g4
(g17
S'\x85\xeb\x10B'
p459
tp460
Rp461
tp462
a(g4
(g17
S'\x93\xfa\xc1\xc2'
p463
tp464
Rp465
g4
(g17
S'\xc5 \x11B'
p466
tp467
Rp468
tp469
a(g4
(g17
S'\xc7\xba\xc1\xc2'
p470
tp471
Rp472
g4
(g17
S'[S\x11B'
p473
tp474
Rp475
tp476
asg4
(g8
S'\x11\x00\x00\x00'
p477
tp478
Rp479
(lp480
(g4
(g17
S'\xbc\xa5\xc4\xc2'
p481
tp482
Rp483
g4
(g17
S'\r\xe0\x07B'
p484
tp485
Rp486
tp487
a(g4
(g17
S'\xbe\x7f\xc4\xc2'
p488
tp489
Rp490
g4
(g17
S'\x0b\xf5\x07B'
p491
tp492
Rp493
tp494
asg4
(g8
S'\x12\x00\x00\x00'
p495
tp496
Rp497
(lp498
(g4
(g17
S'\x12\x05\xc3\xc2'
p499
tp500
Rp501
g4
(g17
S'Wl\x0eB'
p502
tp503
Rp504
tp505
a(g4
(g17
S'\xc7\xeb\xc2\xc2'
p506
tp507
Rp508
g4
(g17
S'<}\x0eB'
p509
tp510
Rp511
tp512
a(g4
(g17
S'\x86\xba\xc2\xc2'
p513
tp514
Rp515
g4
(g17
S'\x16\xbb\x0eB'
p516
tp517
Rp518
tp519
a(g4
(g17
S'{\x94\xc2\xc2'
p520
tp521
Rp522
g4
(g17
S'_\xd8\x0eB'
p523
tp524
Rp525
tp526
a(g4
(g17
S'*z\xc2\xc2'
p527
tp528
Rp529
g4
(g17
S'\xdc\xe8\x0eB'
p530
tp531
Rp532
tp533
a(g4
(g17
S'Rg\xc2\xc2'
p534
tp535
Rp536
g4
(g17
S'\xdc\x06\x0fB'
p537
tp538
Rp539
tp540
a(g4
(g17
S'\xd1Q\xc2\xc2'
p541
tp542
Rp543
g4
(g17
S'Y\x17\x0fB'
p544
tp545
Rp546
tp547
a(g4
(g17
S'\x98=\xc2\xc2'
p548
tp549
Rp550
g4
(g17
S'+\x18\x0fB'
p551
tp552
Rp553
tp554
a(g4
(g17
S'\x9a7\xc2\xc2'
p555
tp556
Rp557
g4
(g17
S'\xcdL\x0fB'
p558
tp559
Rp560
tp561
a(g4
(g17
S'\xf6\x08\xc2\xc2'
p562
tp563
Rp564
g4
(g17
S'nc\x0fB'
p565
tp566
Rp567
tp568
a(g4
(g17
S'\xfb\x0b\xc2\xc2'
p569
tp570
Rp571
g4
(g17
S'\xf7d\x0fB'
p572
tp573
Rp574
tp575
a(g4
(g17
S'7\xe9\xc1\xc2'
p576
tp577
Rp578
g4
(g17
S'\x1f\x85\x0fB'
p579
tp580
Rp581
tp582
a(g4
(g17
S'9\xb6\xc1\xc2'
p583
tp584
Rp585
g4
(g17
S'/\xae\x0fB'
p586
tp587
Rp588
tp589
a(g4
(g17
S'd\x8c\xc1\xc2'
p590
tp591
Rp592
g4
(g17
S'\x9a\xd9\x0fB'
p593
tp594
Rp595
tp596
a(g4
(g17
S'\xf3N\xc1\xc2'
p597
tp598
Rp599
g4
(g17
S'\xc9\xf6\x0fB'
p600
tp601
Rp602
tp603
asg4
(g8
S'\x13\x00\x00\x00'
p604
tp605
Rp606
(lp607
(g4
(g17
S'i\xcf\xc3\xc2'
p608
tp609
Rp610
g4
(g17
S'\xfb\x8b\x15B'
p611
tp612
Rp613
tp614
a(g4
(g17
S'\x99\xaa\xc3\xc2'
p615
tp616
Rp617
g4
(g17
S'?\xb5\x15B'
p618
tp619
Rp620
tp621
a(g4
(g17
S'\x1e\x87\xc3\xc2'
p622
tp623
Rp624
g4
(g17
S'x\xba\x15B'
p625
tp626
Rp627
tp628
a(g4
(g17
S'\xack\xc3\xc2'
p629
tp630
Rp631
g4
(g17
S'\xfe\xc3\x15B'
p632
tp633
Rp634
tp635
a(g4
(g17
S'hS\xc3\xc2'
p636
tp637
Rp638
g4
(g17
S'\xfa\xbe\x15B'
p639
tp640
Rp641
tp642
a(g4
(g17
S'\xc3\xf3\xc2\xc2'
p643
tp644
Rp645
g4
(g17
S'\x9c\xe2\x15B'
p646
tp647
Rp648
tp649
a(g4
(g17
S'x\xfa\xc2\xc2'
p650
tp651
Rp652
g4
(g17
S'\xa0\xda\x15B'
p653
tp654
Rp655
tp656
a(g4
(g17
S'\xe3\xe5\xc2\xc2'
p657
tp658
Rp659
g4
(g17
S'*\xe9\x15B'
p660
tp661
Rp662
tp663
a(g4
(g17
S'+\xd6\xc2\xc2'
p664
tp665
Rp666
g4
(g17
S'@\xe4\x15B'
p667
tp668
Rp669
tp670
a(g4
(g17
S'\x12\xc3\xc2\xc2'
p671
tp672
Rp673
g4
(g17
S'y\xe9\x15B'
p674
tp675
Rp676
tp677
asg4
(g8
S'\x14\x00\x00\x00'
p678
tp679
Rp680
(lp681
(g4
(g17
S'\x01\xed\xc3\xc2'
p682
tp683
Rp684
g4
(g17
S'4\x91\tB'
p685
tp686
Rp687
tp688
a(g4
(g17
S'\xb3\xca\xc3\xc2'
p689
tp690
Rp691
g4
(g17
S'O\xc0\tB'
p692
tp693
Rp694
tp695
a(g4
(g17
S'z\xa5\xc3\xc2'
p696
tp697
Rp698
g4
(g17
S'\xf4\xec\tB'
p699
tp700
Rp701
tp702
a(g4
(g17
S'\xdd\x84\xc3\xc2'
p703
tp704
Rp705
g4
(g17
S'\x81\x15\nB'
p706
tp707
Rp708
tp709
a(g4
(g17
S'\xaab\xc3\xc2'
p710
tp711
Rp712
g4
(g17
S'\x06A\nB'
p713
tp714
Rp715
tp716
a(g4
(g17
S'W;\xc3\xc2'
p717
tp718
Rp719
g4
(g17
S'Qk\nB'
p720
tp721
Rp722
tp723
a(g4
(g17
S'3\x13\xc3\xc2'
p724
tp725
Rp726
g4
(g17
S'H\xa1\nB'
p727
tp728
Rp729
tp730
a(g4
(g17
S'}\xee\xc2\xc2'
p731
tp732
Rp733
g4
(g17
S'\x07\xce\nB'
p734
tp735
Rp736
tp737
a(g4
(g17
S';\xbf\xc2\xc2'
p738
tp739
Rp740
g4
(g17
S'L\xe6\nB'
p741
tp742
Rp743
tp744
a(g4
(g17
S'\x97\x9f\xc2\xc2'
p745
tp746
Rp747
g4
(g17
S'\xe0-\x0bB'
p748
tp749
Rp750
tp751
a(g4
(g17
S'\x8f\x84\xc2\xc2'
p752
tp753
Rp754
g4
(g17
S'c.\x0bB'
p755
tp756
Rp757
tp758
a(g4
(g17
S'\x00`\xc2\xc2'
p759
tp760
Rp761
g4
(g17
S'\xb5U\x0bB'
p762
tp763
Rp764
tp765
a(g4
(g17
S';!\xc2\xc2'
p766
tp767
Rp768
g4
(g17
S'\xe3\x87\x0bB'
p769
tp770
Rp771
tp772
a(g4
(g17
S'\xea\xf5\xc1\xc2'
p773
tp774
Rp775
g4
(g17
S'\xcf\xb7\x0bB'
p776
tp777
Rp778
tp779
a(g4
(g17
S'<\xce\xc1\xc2'
p780
tp781
Rp782
g4
(g17
S'`\xf6\x0bB'
p783
tp784
Rp785
tp786
a(g4
(g17
S'\xddU\xc1\xc2'
p787
tp788
Rp789
g4
(g17
S'"}\x0cB'
p790
tp791
Rp792
tp793
asg4
(g8
S'\x15\x00\x00\x00'
p794
tp795
Rp796
(lp797
(g4
(g17
S'6K\xc4\xc2'
p798
tp799
Rp800
g4
(g17
S'I]\x08B'
p801
tp802
Rp803
tp804
a(g4
(g17
S"\x11'\xc4\xc2"
p805
tp806
Rp807
g4
(g17
S'\xa4p\x08B'
p808
tp809
Rp810
tp811
a(g4
(g17
S'\x14\x0e\xc4\xc2'
p812
tp813
Rp814
g4
(g17
S'\x88c\x08B'
p815
tp816
Rp817
tp818
a(g4
(g17
S'\xde\xf3\xc3\xc2'
p819
tp820
Rp821
g4
(g17
S'\x91~\x08B'
p822
tp823
Rp824
tp825
a(g4
(g17
S'6\xdc\xc3\xc2'
p826
tp827
Rp828
g4
(g17
S',\x94\x08B'
p829
tp830
Rp831
tp832
a(g4
(g17
S'\xd6\xc5\xc3\xc2'
p833
tp834
Rp835
g4
(g17
S'\x8e\xb5\x08B'
p836
tp837
Rp838
tp839
a(g4
(g17
S'\xf2\xb2\xc3\xc2'
p840
tp841
Rp842
g4
(g17
S'\x05\xc5\x08B'
p843
tp844
Rp845
tp846
a(g4
(g17
S'\xdc\xa8\xc3\xc2'
p847
tp848
Rp849
g4
(g17
S'v\xb1\x08B'
p850
tp851
Rp852
tp853
a(g4
(g17
S'\xc8x\xc3\xc2'
p854
tp855
Rp856
g4
(g17
S'\xce\xc8\x08B'
p857
tp858
Rp859
tp860
a(g4
(g17
S'\x95e\xc3\xc2'
p861
tp862
Rp863
g4
(g17
S'v\xe0\x08B'
p864
tp865
Rp866
tp867
a(g4
(g17
S'vO\xc3\xc2'
p868
tp869
Rp870
g4
(g17
S'\xdf\xe0\x08B'
p871
tp872
Rp873
tp874
a(g4
(g17
S'\x9d@\xc3\xc2'
p875
tp876
Rp877
g4
(g17
S'C\xdc\x08B'
p878
tp879
Rp880
tp881
a(g4
(g17
S'\xd2 \xc3\xc2'
p882
tp883
Rp884
g4
(g17
S'\xca\xf2\x08B'
p885
tp886
Rp887
tp888
a(g4
(g17
S'}\xf0\xc2\xc2'
p889
tp890
Rp891
g4
(g17
S'>\xf9\x08B'
p892
tp893
Rp894
tp895
a(g4
(g17
S'\xd4\xda\xc2\xc2'
p896
tp897
Rp898
g4
(g17
S'\x7f\xfb\x08B'
p899
tp900
Rp901
tp902
a(g4
(g17
S'\x98\xac\xc2\xc2'
p903
tp904
Rp905
g4
(g17
S'\x89\x01\tB'
p906
tp907
Rp908
tp909
asg4
(g8
S'\x16\x00\x00\x00'
p910
tp911
Rp912
(lp913
(g4
(g17
S'5O\xc3\xc2'
p914
tp915
Rp916
g4
(g17
S'\x9fM\rB'
p917
tp918
Rp919
tp920
asg4
(g8
S'\x17\x00\x00\x00'
p921
tp922
Rp923
(lp924
(g4
(g17
S'\xfe#\xc4\xc2'
p925
tp926
Rp927
g4
(g17
S'\x8a\xce\x15B'
p928
tp929
Rp930
tp931
a(g4
(g17
S'\xdf \xc4\xc2'
p932
tp933
Rp934
g4
(g17
S"'\xb1\x15B"
p935
tp936
Rp937
tp938
a(g4
(g17
S'#\xfb\xc3\xc2'
p939
tp940
Rp941
g4
(g17
S'\xeb\xe2\x15B'
p942
tp943
Rp944
tp945
asg4
(g8
S'\x18\x00\x00\x00'
p946
tp947
Rp948
(lp949
(g4
(g17
S'\x93\x98\xc3\xc2'
p950
tp951
Rp952
g4
(g17
S'\xfc)\x0cB'
p953
tp954
Rp955
tp956
a(g4
(g17
S'2f\xc3\xc2'
p957
tp958
Rp959
g4
(g17
S'\x18U\x0cB'
p960
tp961
Rp962
tp963
a(g4
(g17
S'\xaaB\xc3\xc2'
p964
tp965
Rp966
g4
(g17
S'\xb6s\x0cB'
p967
tp968
Rp969
tp970
a(g4
(g17
S'\x93\x18\xc3\xc2'
p971
tp972
Rp973
g4
(g17
S'\xee\x9a\x0cB'
p974
tp975
Rp976
tp977
a(g4
(g17
S'\xde\xf3\xc2\xc2'
p978
tp979
Rp980
g4
(g17
S'\xc2\xc6\x0cB'
p981
tp982
Rp983
tp984
a(g4
(g17
S'\xa8\xd7\xc2\xc2'
p985
tp986
Rp987
g4
(g17
S'\x9e\xef\x0cB'
p988
tp989
Rp990
tp991
a(g4
(g17
S'\xea\xb5\xc2\xc2'
p992
tp993
Rp994
g4
(g17
S'S\x05\rB'
p995
tp996
Rp997
tp998
a(g4
(g17
S'\xf5\xaa\xc2\xc2'
p999
tp1000
Rp1001
g4
(g17
S'=\x1b\rB'
p1002
tp1003
Rp1004
tp1005
a(g4
(g17
S'\xaa\x82\xc2\xc2'
p1006
tp1007
Rp1008
g4
(g17
S'\xbe\x1f\rB'
p1009
tp1010
Rp1011
tp1012
a(g4
(g17
S'\x82S\xc2\xc2'
p1013
tp1014
Rp1015
g4
(g17
S'\x1c+\rB'
p1016
tp1017
Rp1018
tp1019
a(g4
(g17
S'=J\xc2\xc2'
p1020
tp1021
Rp1022
g4
(g17
S'\x81&\rB'
p1023
tp1024
Rp1025
tp1026
a(g4
(g17
S')+\xc2\xc2'
p1027
tp1028
Rp1029
g4
(g17
S'YW\rB'
p1030
tp1031
Rp1032
tp1033
asg4
(g8
S'\x19\x00\x00\x00'
p1034
tp1035
Rp1036
(lp1037
(g4
(g17
S'x\xbc\xc4\xc2'
p1038
tp1039
Rp1040
g4
(g17
S'\xd5I\x07B'
p1041
tp1042
Rp1043
tp1044
a(g4
(g17
S'a\x94\xc4\xc2'
p1045
tp1046
Rp1047
g4
(g17
S'@d\x07B'
p1048
tp1049
Rp1050
tp1051
a(g4
(g17
S'\xb6s\xc4\xc2'
p1052
tp1053
Rp1054
g4
(g17
S'\x8eu\x07B'
p1055
tp1056
Rp1057
tp1058
a(g4
(g17
S'*I\xc4\xc2'
p1059
tp1060
Rp1061
g4
(g17
S'\x98\x8c\x07B'
p1062
tp1063
Rp1064
tp1065
a(g4
(g17
S'\x10)\xc4\xc2'
p1066
tp1067
Rp1068
g4
(g17
S'C\xad\x07B'
p1069
tp1070
Rp1071
tp1072
a(g4
(g17
S'\x07\x0e\xc4\xc2'
p1073
tp1074
Rp1075
g4
(g17
S'6\xcd\x07B'
p1076
tp1077
Rp1078
tp1079
a(g4
(g17
S'\x82\xe2\xc3\xc2'
p1080
tp1081
Rp1082
g4
(g17
S'\xbe\xdf\x07B'
p1083
tp1084
Rp1085
tp1086
a(g4
(g17
S'f\xc8\xc3\xc2'
p1087
tp1088
Rp1089
g4
(g17
S',\xe5\x07B'
p1090
tp1091
Rp1092
tp1093
a(g4
(g17
S'c\xae\xc3\xc2'
p1094
tp1095
Rp1096
g4
(g17
S'\x91\x0f\x08B'
p1097
tp1098
Rp1099
tp1100
a(g4
(g17
S' \xa3\xc3\xc2'
p1101
tp1102
Rp1103
g4
(g17
S'\x9a\xf7\x07B'
p1104
tp1105
Rp1106
tp1107
a(g4
(g17
S'-\xa3\xc3\xc2'
p1108
tp1109
Rp1110
g4
(g17
S'L\xf7\x07B'
p1111
tp1112
Rp1113
tp1114
a(g4
(g17
S'\x82\x82\xc3\xc2'
p1115
tp1116
Rp1117
g4
(g17
S'J\xfb\x07B'
p1118
tp1119
Rp1120
tp1121
a(g4
(g17
S'\x8a_\xc3\xc2'
p1122
tp1123
Rp1124
g4
(g17
S'\xd3\r\x08B'
p1125
tp1126
Rp1127
tp1128
a(g4
(g17
S'\xd05\xc3\xc2'
p1129
tp1130
Rp1131
g4
(g17
S'\xe7\x1d\x08B'
p1132
tp1133
Rp1134
tp1135
a(g4
(g17
S'\xbc%\xc3\xc2'
p1136
tp1137
Rp1138
g4
(g17
S'6+\x08B'
p1139
tp1140
Rp1141
tp1142
a(g4
(g17
S'v\xe0\xc2\xc2'
p1143
tp1144
Rp1145
g4
(g17
S'\x8fB\x08B'
p1146
tp1147
Rp1148
tp1149
asg4
(g8
S'\x1a\x00\x00\x00'
p1150
tp1151
Rp1152
(lp1153
(g4
(g17
S'\xa3c\xc1\xc2'
p1154
tp1155
Rp1156
g4
(g17
S'\xbb\xb8\x14B'
p1157
tp1158
Rp1159
tp1160
a(g4
(g17
S'\xd2/\xc1\xc2'
p1161
tp1162
Rp1163
g4
(g17
S'\xe0\xdc\x14B'
p1164
tp1165
Rp1166
tp1167
a(g4
(g17
S'2\x17\xc1\xc2'
p1168
tp1169
Rp1170
g4
(g17
S'\x0e\xfe\x14B'
p1171
tp1172
Rp1173
tp1174
a(g4
(g17
S'\x98\xfd\xc0\xc2'
p1175
tp1176
Rp1177
g4
(g17
S'\xe9\x08\x15B'
p1178
tp1179
Rp1180
tp1181
a(g4
(g17
S'\xfe\xf4\xc0\xc2'
p1182
tp1183
Rp1184
g4
(g17
S'U\x01\x15B'
p1185
tp1186
Rp1187
tp1188
a(g4
(g17
S'K\xc8\xc0\xc2'
p1189
tp1190
Rp1191
g4
(g17
S'\xd3\r\x15B'
p1192
tp1193
Rp1194
tp1195
a(g4
(g17
S'\xeb\xc2\xc0\xc2'
p1196
tp1197
Rp1198
g4
(g17
S'\xa3#\x15B'
p1199
tp1200
Rp1201
tp1202
a(g4
(g17
S'\xc1\xaa\xc0\xc2'
p1203
tp1204
Rp1205
g4
(g17
S'\x05E\x15B'
p1206
tp1207
Rp1208
tp1209
a(g4
(g17
S';\xa1\xc0\xc2'
p1210
tp1211
Rp1212
g4
(g17
S'\xd3^\x15B'
p1213
tp1214
Rp1215
tp1216
a(g4
(g17
S'E\xa7\xc0\xc2'
p1217
tp1218
Rp1219
g4
(g17
S'\x9aw\x15B'
p1220
tp1221
Rp1222
tp1223
asg4
(g8
S'\x1b\x00\x00\x00'
p1224
tp1225
Rp1226
(lp1227
(g4
(g17
S'\x85\xfc\xc2\xc2'
p1228
tp1229
Rp1230
g4
(g17
S'\xbb\xe7\x15B'
p1231
tp1232
Rp1233
tp1234
a(g4
(g17
S'*\xe9\xc2\xc2'
p1235
tp1236
Rp1237
g4
(g17
S'!\xf0\x15B'
p1238
tp1239
Rp1240
tp1241
asg4
(g8
S'\x1c\x00\x00\x00'
p1242
tp1243
Rp1244
(lp1245
(g4
(g17
S'V\xdd\xc2\xc2'
p1246
tp1247
Rp1248
g4
(g17
S'\x02k\x0fB'
p1249
tp1250
Rp1251
tp1252
a(g4
(g17
S',\xa5\xc2\xc2'
p1253
tp1254
Rp1255
g4
(g17
S'\x00\x91\x0fB'
p1256
tp1257
Rp1258
tp1259
asg4
(g8
S'\x1d\x00\x00\x00'
p1260
tp1261
Rp1262
(lp1263
(g4
(g17
S'\xddu\xc2\xc2'
p1264
tp1265
Rp1266
g4
(g17
S'+\x07\x10B'
p1267
tp1268
Rp1269
tp1270
a(g4
(g17
S'\x87G\xc2\xc2'
p1271
tp1272
Rp1273
g4
(g17
S'Z$\x10B'
p1274
tp1275
Rp1276
tp1277
a(g4
(g17
S'\xba)\xc2\xc2'
p1278
tp1279
Rp1280
g4
(g17
S'KH\x10B'
p1281
tp1282
Rp1283
tp1284
a(g4
(g17
S'\x0c\xf3\xc1\xc2'
p1285
tp1286
Rp1287
g4
(g17
S'\x98n\x10B'
p1288
tp1289
Rp1290
tp1291
a(g4
(g17
S'\xa3\xd2\xc1\xc2'
p1292
tp1293
Rp1294
g4
(g17
S'\xd6\x96\x10B'
p1295
tp1296
Rp1297
tp1298
a(g4
(g17
S'\xb5\xa6\xc1\xc2'
p1299
tp1300
Rp1301
g4
(g17
S'\x00\xc0\x10B'
p1302
tp1303
Rp1304
tp1305
a(g4
(g17
S'\xcf\xa6\xc1\xc2'
p1306
tp1307
Rp1308
g4
(g17
S'!\xf0\x10B'
p1309
tp1310
Rp1311
tp1312
a(g4
(g17
S'\xf0e\xc1\xc2'
p1313
tp1314
Rp1315
g4
(g17
S'\xc5\x0f\x11B'
p1316
tp1317
Rp1318
tp1319
a(g4
(g17
S'\xbep\xc1\xc2'
p1320
tp1321
Rp1322
g4
(g17
S'fH\x11B'
p1323
tp1324
Rp1325
tp1326
a(g4
(g17
S'\x1b>\xc1\xc2'
p1327
tp1328
Rp1329
g4
(g17
S'\x86x\x11B'
p1330
tp1331
Rp1332
tp1333
asg4
(g8
S'\x1e\x00\x00\x00'
p1334
tp1335
Rp1336
(lp1337
(g4
(g17
S'C\xfc\xc2\xc2'
p1338
tp1339
Rp1340
g4
(g17
S'\xac\\\x12B'
p1341
tp1342
Rp1343
tp1344
a(g4
(g17
S'\xfa\xcd\xc2\xc2'
p1345
tp1346
Rp1347
g4
(g17
S'<\x8e\x12B'
p1348
tp1349
Rp1350
tp1351
a(g4
(g17
S'\xbb\x98\xc2\xc2'
p1352
tp1353
Rp1354
g4
(g17
S'W\xac\x12B'
p1355
tp1356
Rp1357
tp1358
asg4
(g8
S'\x1f\x00\x00\x00'
p1359
tp1360
Rp1361
(lp1362
(g4
(g17
S'\xb1P\xc3\xc2'
p1363
tp1364
Rp1365
g4
(g17
S'F\xb6\x10B'
p1366
tp1367
Rp1368
tp1369
a(g4
(g17
S'\x9a(\xc3\xc2'
p1370
tp1371
Rp1372
g4
(g17
S'W\xdb\x10B'
p1373
tp1374
Rp1375
tp1376
a(g4
(g17
S'\x89\x01\xc3\xc2'
p1377
tp1378
Rp1379
g4
(g17
S'x\xfa\x10B'
p1380
tp1381
Rp1382
tp1383
a(g4
(g17
S'\xc9\xe5\xc2\xc2'
p1384
tp1385
Rp1386
g4
(g17
S'\xd4\xeb\x10B'
p1387
tp1388
Rp1389
tp1390
a(g4
(g17
S'\xcb\xd0\xc2\xc2'
p1391
tp1392
Rp1393
g4
(g17
S'\xc4\xf1\x10B'
p1394
tp1395
Rp1396
tp1397
a(g4
(g17
S'\xc3\xa4\xc2\xc2'
p1398
tp1399
Rp1400
g4
(g17
S'\x8f\x13\x11B'
p1401
tp1402
Rp1403
tp1404
a(g4
(g17
S'\x02k\xc2\xc2'
p1405
tp1406
Rp1407
g4
(g17
S'\x17H\x11B'
p1408
tp1409
Rp1410
tp1411
a(g4
(g17
S'\xc0L\xc2\xc2'
p1412
tp1413
Rp1414
g4
(g17
S'\x16j\x11B'
p1415
tp1416
Rp1417
tp1418
a(g4
(g17
S'f(\xc2\xc2'
p1419
tp1420
Rp1421
g4
(g17
S'\x12\x94\x11B'
p1422
tp1423
Rp1424
tp1425
a(g4
(g17
S'\x9f\xeb\xc1\xc2'
p1426
tp1427
Rp1428
g4
(g17
S'\xa6\xdb\x11B'
p1429
tp1430
Rp1431
tp1432
asg4
(g8
S' \x00\x00\x00'
p1433
tp1434
Rp1435
(lp1436
(g4
(g17
S'n\xa3\xc3\xc2'
p1437
tp1438
Rp1439
g4
(g17
S'C\x9c\tB'
p1440
tp1441
Rp1442
tp1443
a(g4
(g17
S'\xfe\x83\xc3\xc2'
p1444
tp1445
Rp1446
g4
(g17
S't\x06\nB'
p1447
tp1448
Rp1449
tp1450
a(g4
(g17
S'\xcbP\xc3\xc2'
p1451
tp1452
Rp1453
g4
(g17
S'q\x1b\nB'
p1454
tp1455
Rp1456
tp1457
a(g4
(g17
S'a2\xc3\xc2'
p1458
tp1459
Rp1460
g4
(g17
S'gU\nB'
p1461
tp1462
Rp1463
tp1464
a(g4
(g17
S'G\x03\xc3\xc2'
p1465
tp1466
Rp1467
g4
(g17
S'\x88t\nB'
p1468
tp1469
Rp1470
tp1471
a(g4
(g17
S'\x94\xf6\xc2\xc2'
p1472
tp1473
Rp1474
g4
(g17
S'\xdf\x8f\nB'
p1475
tp1476
Rp1477
tp1478
a(g4
(g17
S'\xdd\xe4\xc2\xc2'
p1479
tp1480
Rp1481
g4
(g17
S'\xd8\xc1\nB'
p1482
tp1483
Rp1484
tp1485
a(g4
(g17
S'\xbc\x96\xc2\xc2'
p1486
tp1487
Rp1488
g4
(g17
S'p\xce\nB'
p1489
tp1490
Rp1491
tp1492
a(g4
(g17
S'O\x8f\xc2\xc2'
p1493
tp1494
Rp1495
g4
(g17
S'\xe1\x0b\x0bB'
p1496
tp1497
Rp1498
tp1499
a(g4
(g17
S'}p\xc2\xc2'
p1500
tp1501
Rp1502
g4
(g17
S'\xdcF\x0bB'
p1503
tp1504
Rp1505
tp1506
a(g4
(g17
S'\x08\xec\xc1\xc2'
p1507
tp1508
Rp1509
g4
(g17
S'a\x94\x0bB'
p1510
tp1511
Rp1512
tp1513
asg4
(g8
S'!\x00\x00\x00'
p1514
tp1515
Rp1516
(lp1517
(g4
(g17
S'"}\xc2\xc2'
p1518
tp1519
Rp1520
g4
(g17
S'\xbe\xc1\x10B'
p1521
tp1522
Rp1523
tp1524
a(g4
(g17
S'\x9fK\xc2\xc2'
p1525
tp1526
Rp1527
g4
(g17
S'\x1f\xf4\x10B'
p1528
tp1529
Rp1530
tp1531
a(g4
(g17
S'\x08\x1d\xc2\xc2'
p1532
tp1533
Rp1534
g4
(g17
S'\x95%\x11B'
p1535
tp1536
Rp1537
tp1538
a(g4
(g17
S'I\xfd\xc1\xc2'
p1539
tp1540
Rp1541
g4
(g17
S')\\\x11B'
p1542
tp1543
Rp1544
tp1545
a(g4
(g17
S'\x1a\xe0\xc1\xc2'
p1546
tp1547
Rp1548
g4
(g17
S'\x01\x9e\x11B'
p1549
tp1550
Rp1551
tp1552
a(g4
(g17
S'\xd0\xb3\xc1\xc2'
p1553
tp1554
Rp1555
g4
(g17
S'M\xc4\x11B'
p1556
tp1557
Rp1558
tp1559
asg4
(g8
S'"\x00\x00\x00'
p1560
tp1561
Rp1562
(lp1563
(g4
(g17
S'\x86\xc9\xc2\xc2'
p1564
tp1565
Rp1566
g4
(g17
S'\x8e\xc6\x14B'
p1567
tp1568
Rp1569
tp1570
a(g4
(g17
S'\xc9\xa5\xc2\xc2'
p1571
tp1572
Rp1573
g4
(g17
S'F\xf6\x14B'
p1574
tp1575
Rp1576
tp1577
a(g4
(g17
S'\x10\x9a\xc2\xc2'
p1578
tp1579
Rp1580
g4
(g17
S'\xe7\x0c\x15B'
p1581
tp1582
Rp1583
tp1584
a(g4
(g17
S'0\x8c\xc2\xc2'
p1585
tp1586
Rp1587
g4
(g17
S'}\x10\x15B'
p1588
tp1589
Rp1590
tp1591
a(g4
(g17
S'\x86Z\xc2\xc2'
p1592
tp1593
Rp1594
g4
(g17
S'\xceH\x15B'
p1595
tp1596
Rp1597
tp1598
a(g4
(g17
S'\xbc6\xc2\xc2'
p1599
tp1600
Rp1601
g4
(g17
S'0j\x15B'
p1602
tp1603
Rp1604
tp1605
asg4
(g8
S'#\x00\x00\x00'
p1606
tp1607
Rp1608
(lp1609
(g4
(g17
S';\xc1\xc2\xc2'
p1610
tp1611
Rp1612
g4
(g17
S'?F\x12B'
p1613
tp1614
Rp1615
tp1616
a(g4
(g17
S'\xf0\x87\xc2\xc2'
p1617
tp1618
Rp1619
g4
(g17
S'c\x7f\x12B'
p1620
tp1621
Rp1622
tp1623
a(g4
(g17
S'\xa5n\xc2\xc2'
p1624
tp1625
Rp1626
g4
(g17
S'\xf0\x96\x12B'
p1627
tp1628
Rp1629
tp1630
asg4
(g8
S'$\x00\x00\x00'
p1631
tp1632
Rp1633
(lp1634
(g4
(g17
S'S\xe5\xc0\xc2'
p1635
tp1636
Rp1637
g4
(g17
S'\x9e\xaf\x12B'
p1638
tp1639
Rp1640
tp1641
a(g4
(g17
S'\xa3\x92\xc0\xc2'
p1642
tp1643
Rp1644
g4
(g17
S's\xd7\x12B'
p1645
tp1646
Rp1647
tp1648
a(g4
(g17
S'\x94\xa7\xc0\xc2'
p1649
tp1650
Rp1651
g4
(g17
S'\x1b\xde\x12B'
p1652
tp1653
Rp1654
tp1655
a(g4
(g17
S'\xc2w\xc0\xc2'
p1656
tp1657
Rp1658
g4
(g17
S't\xf5\x12B'
p1659
tp1660
Rp1661
tp1662
a(g4
(g17
S'Vn\xc0\xc2'
p1663
tp1664
Rp1665
g4
(g17
S'x\xfa\x12B'
p1666
tp1667
Rp1668
tp1669
a(g4
(g17
S'Gr\xc0\xc2'
p1670
tp1671
Rp1672
g4
(g17
S'X\xf9\x12B'
p1673
tp1674
Rp1675
tp1676
a(g4
(g17
S'\xec@\xc0\xc2'
p1677
tp1678
Rp1679
g4
(g17
S'\x88#\x13B'
p1680
tp1681
Rp1682
tp1683
asg4
(g8
S'%\x00\x00\x00'
p1684
tp1685
Rp1686
(lp1687
(g4
(g17
S'\xfa-\xc4\xc2'
p1688
tp1689
Rp1690
g4
(g17
S'=\n\x0cB'
p1691
tp1692
Rp1693
tp1694
a(g4
(g17
S'Z$\xc4\xc2'
p1695
tp1696
Rp1697
g4
(g17
S'\xa2\x05\x0cB'
p1698
tp1699
Rp1700
tp1701
a(g4
(g17
S'U\x01\xc4\xc2'
p1702
tp1703
Rp1704
g4
(g17
S'\x9b\x15\x0cB'
p1705
tp1706
Rp1707
tp1708
a(g4
(g17
S'\x1d\xc9\xc3\xc2'
p1709
tp1710
Rp1711
g4
(g17
S'uB\x0cB'
p1712
tp1713
Rp1714
tp1715
a(g4
(g17
S'h\x93\xc3\xc2'
p1716
tp1717
Rp1718
g4
(g17
S'\xc8G\x0cB'
p1719
tp1720
Rp1721
tp1722
a(g4
(g17
S'xZ\xc3\xc2'
p1723
tp1724
Rp1725
g4
(g17
S'm\x96\x0cB'
p1726
tp1727
Rp1728
tp1729
a(g4
(g17
S'\x1b-\xc3\xc2'
p1730
tp1731
Rp1732
g4
(g17
S'\x8e\x86\x0cB'
p1733
tp1734
Rp1735
tp1736
asg4
(g8
S'&\x00\x00\x00'
p1737
tp1738
Rp1739
(lp1740
(g4
(g17
S'\x99\x8a\xc2\xc2'
p1741
tp1742
Rp1743
g4
(g17
S'\x8f\x93\x15B'
p1744
tp1745
Rp1746
tp1747
a(g4
(g17
S'Xh\xc2\xc2'
p1748
tp1749
Rp1750
g4
(g17
S'\xb0\xb2\x15B'
p1751
tp1752
Rp1753
tp1754
a(g4
(g17
S'\xb1?\xc2\xc2'
p1755
tp1756
Rp1757
g4
(g17
S'\x02\xda\x15B'
p1758
tp1759
Rp1760
tp1761
a(g4
(g17
S'\xe7=\xc2\xc2'
p1762
tp1763
Rp1764
g4
(g17
S'\x9f\xbc\x15B'
p1765
tp1766
Rp1767
tp1768
a(g4
(g17
S'\xac\x1c\xc2\xc2'
p1769
tp1770
Rp1771
g4
(g17
S'\x18\xe6\x15B'
p1772
tp1773
Rp1774
tp1775
a(g4
(g17
S'\xe3\x07\xc2\xc2'
p1776
tp1777
Rp1778
g4
(g17
S'\xa0\xda\x15B'
p1779
tp1780
Rp1781
tp1782
asg4
(g8
S"'\x00\x00\x00"
p1783
tp1784
Rp1785
(lp1786
(g4
(g17
S'\x99\x8a\xc2\xc2'
p1787
tp1788
Rp1789
g4
(g17
S'\xc96\x14B'
p1790
tp1791
Rp1792
tp1793
a(g4
(g17
S'\x9eo\xc2\xc2'
p1794
tp1795
Rp1796
g4
(g17
S'\xdeS\x14B'
p1797
tp1798
Rp1799
tp1800
a(g4
(g17
S'EX\xc2\xc2'
p1801
tp1802
Rp1803
g4
(g17
S'[q\x14B'
p1804
tp1805
Rp1806
tp1807
a(g4
(g17
S'X9\xc2\xc2'
p1808
tp1809
Rp1810
g4
(g17
S'\xe2\x98\x14B'
p1811
tp1812
Rp1813
tp1814
a(g4
(g17
S'\x9e\xcf\xc1\xc2'
p1815
tp1816
Rp1817
g4
(g17
S'\xac\xed\x14B'
p1818
tp1819
Rp1820
tp1821
asg4
(g8
S'(\x00\x00\x00'
p1822
tp1823
Rp1824
(lp1825
(g4
(g17
S'(^\xc2\xc2'
p1826
tp1827
Rp1828
g4
(g17
S'\r \x13B'
p1829
tp1830
Rp1831
tp1832
a(g4
(g17
S'\x05C\xc2\xc2'
p1833
tp1834
Rp1835
g4
(g17
S'$9\x13B'
p1836
tp1837
Rp1838
tp1839
a(g4
(g17
S'\xe7\x1b\xc2\xc2'
p1840
tp1841
Rp1842
g4
(g17
S'\x80\x88\x13B'
p1843
tp1844
Rp1845
tp1846
a(g4
(g17
S'\x8c\xfb\xc1\xc2'
p1847
tp1848
Rp1849
g4
(g17
S'd]\x13B'
p1850
tp1851
Rp1852
tp1853
asg4
(g8
S'*\x00\x00\x00'
p1854
tp1855
Rp1856
(lp1857
(g4
(g17
S'^\xcb\xc0\xc2'
p1858
tp1859
Rp1860
g4
(g17
S'\x8d\xa8\x15B'
p1861
tp1862
Rp1863
tp1864
a(g4
(g17
S'B\xaf\xc0\xc2'
p1865
tp1866
Rp1867
g4
(g17
S'Y\xc6\x15B'
p1868
tp1869
Rp1870
tp1871
asg4
(g8
S',\x00\x00\x00'
p1872
tp1873
Rp1874
(lp1875
(g4
(g17
S'S6\xc4\xc2'
p1876
tp1877
Rp1878
g4
(g17
S'\xbf\x0e\tB'
p1879
tp1880
Rp1881
tp1882
a(g4
(g17
S'+\x16\xc4\xc2'
p1883
tp1884
Rp1885
g4
(g17
S'\xee\x1a\tB'
p1886
tp1887
Rp1888
tp1889
a(g4
(g17
S'\x1b\xef\xc3\xc2'
p1890
tp1891
Rp1892
g4
(g17
S'\x038\tB'
p1893
tp1894
Rp1895
tp1896
a(g4
(g17
S'>\xc8\xc3\xc2'
p1897
tp1898
Rp1899
g4
(g17
S'6M\tB'
p1900
tp1901
Rp1902
tp1903
a(g4
(g17
S'\xab\xbe\xc3\xc2'
p1904
tp1905
Rp1906
g4
(g17
S'\x0bF\tB'
p1907
tp1908
Rp1909
tp1910
a(g4
(g17
S'\xec\x8f\xc3\xc2'
p1911
tp1912
Rp1913
g4
(g17
S'\xe3\x87\tB'
p1914
tp1915
Rp1916
tp1917
a(g4
(g17
S'\xe5r\xc3\xc2'
p1918
tp1919
Rp1920
g4
(g17
S'\xa8u\tB'
p1921
tp1922
Rp1923
tp1924
a(g4
(g17
S'\x91O\xc3\xc2'
p1925
tp1926
Rp1927
g4
(g17
S'\x0b\x86\tB'
p1928
tp1929
Rp1930
tp1931
a(g4
(g17
S'\x8c9\xc3\xc2'
p1932
tp1933
Rp1934
g4
(g17
S'\x05\xa3\tB'
p1935
tp1936
Rp1937
tp1938
a(g4
(g17
S'A\x11\xc3\xc2'
p1939
tp1940
Rp1941
g4
(g17
S'q\x9b\tB'
p1942
tp1943
Rp1944
tp1945
a(g4
(g17
S'\xe2\x18\xc3\xc2'
p1946
tp1947
Rp1948
g4
(g17
S'\xf0\xa7\tB'
p1949
tp1950
Rp1951
tp1952
a(g4
(g17
S'\xc1\xd9\xc2\xc2'
p1953
tp1954
Rp1955
g4
(g17
S')m\tB'
p1956
tp1957
Rp1958
tp1959
a(g4
(g17
S'\xfb\xcb\xc2\xc2'
p1960
tp1961
Rp1962
g4
(g17
S'\x1c|\tB'
p1963
tp1964
Rp1965
tp1966
a(g4
(g17
S'X\xb9\xc2\xc2'
p1967
tp1968
Rp1969
g4
(g17
S's\x97\tB'
p1970
tp1971
Rp1972
tp1973
a(g4
(g17
S'\xbc\x85\xc2\xc2'
p1974
tp1975
Rp1976
g4
(g17
S'\xf0\x96\tB'
p1977
tp1978
Rp1979
tp1980
a(g4
(g17
S'\xf7F\xc2\xc2'
p1981
tp1982
Rp1983
g4
(g17
S'\xca\xb2\tB'
p1984
tp1985
Rp1986
tp1987
asg4
(g8
S'-\x00\x00\x00'
p1988
tp1989
Rp1990
(lp1991
(g4
(g17
S'\x9d\xf1\xc3\xc2'
p1992
tp1993
Rp1994
g4
(g17
S'u\xd3\x0bB'
p1995
tp1996
Rp1997
tp1998
a(g4
(g17
S'\x1c\x9c\xc3\xc2'
p1999
tp2000
Rp2001
g4
(g17
S'\xdd\xf5\x0bB'
p2002
tp2003
Rp2004
tp2005
asg4
(g8
S'.\x00\x00\x00'
p2006
tp2007
Rp2008
(lp2009
(g4
(g17
S'\xa3\x03\xc4\xc2'
p2010
tp2011
Rp2012
g4
(g17
S'T\xd2\nB'
p2013
tp2014
Rp2015
tp2016
asg4
(g8
S'8\x00\x00\x00'
p2017
tp2018
Rp2019
(lp2020
(g4
(g17
S'B@\xc2\xc2'
p2021
tp2022
Rp2023
g4
(g17
S'Q\x9a\x10B'
p2024
tp2025
Rp2026
tp2027
a(g4
(g17
S'a\xc3\xc1\xc2'
p2028
tp2029
Rp2030
g4
(g17
S'\xdc\x17\x11B'
p2031
tp2032
Rp2033
tp2034
asg4
(g8
S'>\x00\x00\x00'
p2035
tp2036
Rp2037
(lp2038
(g4
(g17
S'\x0f\xcb\xc2\xc2'
p2039
tp2040
Rp2041
g4
(g17
S' R\x11B'
p2042
tp2043
Rp2044
tp2045
a(g4
(g17
S'<\xae\xc2\xc2'
p2046
tp2047
Rp2048
g4
(g17
S'\xbaI\x11B'
p2049
tp2050
Rp2051
tp2052
a(g4
(g17
S'9\x85\xc2\xc2'
p2053
tp2054
Rp2055
g4
(g17
S'w~\x11B'
p2056
tp2057
Rp2058
tp2059
a(g4
(g17
S'\x18u\xc2\xc2'
p2060
tp2061
Rp2062
g4
(g17
S'\xec\xaf\x11B'
p2063
tp2064
Rp2065
tp2066
a(g4
(g17
S'#*\xc2\xc2'
p2067
tp2068
Rp2069
g4
(g17
S'\x06\xd2\x11B'
p2070
tp2071
Rp2072
tp2073
a(g4
(g17
S'k\x1a\xc2\xc2'
p2074
tp2075
Rp2076
g4
(g17
S'\x9e\xef\x11B'
p2077
tp2078
Rp2079
tp2080
a(g4
(g17
S'\xba\xba\xc1\xc2'
p2081
tp2082
Rp2083
g4
(g17
S'G2\x12B'
p2084
tp2085
Rp2086
tp2087
asg4
(g8
S'?\x00\x00\x00'
p2088
tp2089
Rp2090
(lp2091
(g4
(g17
S'\x0f\xab\xc1\xc2'
p2092
tp2093
Rp2094
g4
(g17
S'<\xce\x13B'
p2095
tp2096
Rp2097
tp2098
asg4
(g8
S'@\x00\x00\x00'
p2099
tp2100
Rp2101
(lp2102
(g4
(g17
S'\x0e\xcf\xc2\xc2'
p2103
tp2104
Rp2105
g4
(g17
S'2&\x14B'
p2106
tp2107
Rp2108
tp2109
a(g4
(g17
S'\x89\xb2\xc2\xc2'
p2110
tp2111
Rp2112
g4
(g17
S'\xcbP\x14B'
p2113
tp2114
Rp2115
tp2116
a(g4
(g17
S'\x8c\x9b\xc2\xc2'
p2117
tp2118
Rp2119
g4
(g17
S'V_\x14B'
p2120
tp2121
Rp2122
tp2123
a(g4
(g17
S'B~\xc2\xc2'
p2124
tp2125
Rp2126
g4
(g17
S',\x94\x14B'
p2127
tp2128
Rp2129
tp2130
a(g4
(g17
S'\xd3\\\xc2\xc2'
p2131
tp2132
Rp2133
g4
(g17
S'\xf2\xc1\x14B'
p2134
tp2135
Rp2136
tp2137
a(g4
(g17
S'\xcf7\xc2\xc2'
p2138
tp2139
Rp2140
g4
(g17
S'\xd6\xd6\x14B'
p2141
tp2142
Rp2143
tp2144
a(g4
(g17
S'\xa7\x19\xc2\xc2'
p2145
tp2146
Rp2147
g4
(g17
S'\xec\x11\x15B'
p2148
tp2149
Rp2150
tp2151
a(g4
(g17
S'\xe4\xc3\xc1\xc2'
p2152
tp2153
Rp2154
g4
(g17
S'\xa3\x92\x15B'
p2155
tp2156
Rp2157
tp2158
asg4
(g8
S'A\x00\x00\x00'
p2159
tp2160
Rp2161
(lp2162
(g4
(g17
S'\xc0L\xc2\xc2'
p2163
tp2164
Rp2165
g4
(g17
S'\r\xe0\x13B'
p2166
tp2167
Rp2168
tp2169
a(g4
(g17
S'\xb71\xc2\xc2'
p2170
tp2171
Rp2172
g4
(g17
S'l\t\x14B'
p2173
tp2174
Rp2175
tp2176
a(g4
(g17
S'\x16\xfb\xc1\xc2'
p2177
tp2178
Rp2179
g4
(g17
S'0{\x14B'
p2180
tp2181
Rp2182
tp2183
asg4
(g8
S'\xf7\xff\xff\xff'
p2184
tp2185
Rp2186
(lp2187
(g4
(g17
S'\xe8j\xc3\xc2'
p2188
tp2189
Rp2190
g4
(g17
S'\xb1\xd0\x14B'
p2191
tp2192
Rp2193
tp2194
a(g4
(g17
S'A\xd1\xc1\xc2'
p2195
tp2196
Rp2197
g4
(g17
S'\xb8\x9e\x11B'
p2198
tp2199
Rp2200
tp2201
a(g4
(g17
S'\xdc\xa6\xc3\xc2'
p2202
tp2203
Rp2204
g4
(g17
S'-C\x0eB'
p2205
tp2206
Rp2207
tp2208
a(g4
(g17
S'\x9b\x95\xc3\xc2'
p2209
tp2210
Rp2211
g4
(g17
S'\xa4\xb0\rB'
p2212
tp2213
Rp2214
tp2215
a(g4
(g17
S' c\xc2\xc2'
p2216
tp2217
Rp2218
g4
(g17
S'%\x86\x15B'
p2219
tp2220
Rp2221
tp2222
a(g4
(g17
S'*\xfa\xc2\xc2'
p2223
tp2224
Rp2225
g4
(g17
S'\xc7)\x10B'
p2226
tp2227
Rp2228
tp2229
a(g4
(g17
S'F%\xc0\xc2'
p2230
tp2231
Rp2232
g4
(g17
S'_)\x13B'
p2233
tp2234
Rp2235
tp2236
a(g4
(g17
S'\xccN\xc1\xc2'
p2237
tp2238
Rp2239
g4
(g17
S'\x17\x19\x14B'
p2240
tp2241
Rp2242
tp2243
as.